target datalayout = "e-m:e-p270:32:32-p271:32:32-p272:64:64-i64:64-i128:128-f80:128-n8:16:32:64-S128"
target triple = "x86_64-pc-linux-gnu"

%struct.pg_compress_specification = type { i32, i32, i32, i32, i8, ptr }

@.str = private unnamed_addr constant [48 x i8] c"this build does not support compression with %s\00", align 1

; Function Attrs: nounwind uwtable
define dso_local ptr @supports_compression(ptr noundef byval(%struct.pg_compress_specification) align 8 %0) #0 {
  %2 = alloca ptr, align 8
  %3 = alloca i32, align 4
  %4 = alloca i8, align 1
  %5 = alloca i32, align 4
  call void @llvm.lifetime.start.p0(i64 4, ptr %3) #7
  %6 = getelementptr inbounds nuw %struct.pg_compress_specification, ptr %0, i32 0, i32 0
  %7 = load i32, ptr %6, align 8
  store i32 %7, ptr %3, align 4
  call void @llvm.lifetime.start.p0(i64 1, ptr %4) #7
  store i8 0, ptr %4, align 1
  %8 = load i32, ptr %3, align 4
  %9 = icmp eq i32 %8, 0
  br i1 %9, label %10, label %11

10:                                               ; preds = %1
  store i8 1, ptr %4, align 1
  br label %11

11:                                               ; preds = %10, %1
  %12 = load i32, ptr %3, align 4
  %13 = icmp eq i32 %12, 1
  br i1 %13, label %14, label %15

14:                                               ; preds = %11
  store i8 1, ptr %4, align 1
  br label %15

15:                                               ; preds = %14, %11
  %16 = load i8, ptr %4, align 1, !range !4, !noundef !5
  %17 = trunc i8 %16 to i1
  br i1 %17, label %22, label %18

18:                                               ; preds = %15
  %19 = load i32, ptr %3, align 4
  %20 = call ptr @get_compress_algorithm_name(i32 noundef %19)
  %21 = call ptr (ptr, ...) @psprintf(ptr noundef @.str, ptr noundef %20)
  store ptr %21, ptr %2, align 8
  store i32 1, ptr %5, align 4
  br label %23

22:                                               ; preds = %15
  store ptr null, ptr %2, align 8
  store i32 1, ptr %5, align 4
  br label %23

23:                                               ; preds = %22, %18
  call void @llvm.lifetime.end.p0(i64 1, ptr %4) #7
  call void @llvm.lifetime.end.p0(i64 4, ptr %3) #7
  %24 = load ptr, ptr %2, align 8
  ret ptr %24
}