; Function Attrs: nounwind uwtable
define dso_local ptr @supports_compression(ptr noundef readonly byval(%struct.pg_compress_specification) align 8 captures(none) %0) local_unnamed_addr #0 {
  %2 = load i32, ptr %0, align 8
  %narrow = icmp ult i32 %2, 2
  br i1 %narrow, label %6, label %3

3:                                                ; preds = %1
  %4 = tail call ptr @get_compress_algorithm_name(i32 noundef %2) #9
  %5 = tail call ptr (ptr, ...) @psprintf(ptr noundef nonnull @.str, ptr noundef %4) #9
  br label %6

6:                                                ; preds = %1, %3
  %.0 = phi ptr [ %5, %3 ], [ null, %1 ]
  ret ptr %.0
}